(cnumpy.core.multiarray
_reconstruct
p0
(cnumpy
ndarray
p1
(I0
tp2
S'b'
p3
tp4
Rp5
(I1
(I2
tp6
cnumpy
dtype
p7
(S'f8'
p8
I0
I1
tp9
Rp10
(I3
S'<'
p11
NNNI-1
I-1
I0
tp12
bI00
S'\xcd\xcc\xcc\xcc\xcc|\x8e@33333\xc8\x94@'
p13
tp14
bcnumpy.core.multiarray
scalar
p15
(g10
S'\x00\x00\x00\x00\x00\xf8\x8d@'
p16
tp17
Rp18
tp19
.